target datalayout = "e-m:e-p270:32:32-p271:32:32-p272:64:64-i64:64-i128:128-f80:128-n8:16:32:64-S128"
target triple = "x86_64-pc-linux-gnu"

%struct.GCRef = type { i64 }
%struct.jit_State = type { %struct.GCtrace, ptr, ptr, ptr, ptr, ptr, ptr, i32, i32, i32, i8, i8, %struct.IRType1, i8, %struct.FoldState, ptr, i32, i32, i32, i32, i32, i32, i32, [1 x i32], [5 x %union.TValue], [3 x %union.TValue], ptr, i32, i32, i32, i32, ptr, ptr, i32, i32, i8, ptr, i32, i32, i16, [101 x i16], [258 x i32], [15 x i32], [16 x ptr], [64 x %struct.HotPenalty], i32, [16 x %struct.BPropEntry], i32, %struct.ScEvEntry, ptr, i32, i32, i32, ptr, i32, i32, ptr, ptr, ptr, i64, i64, %union.TValue, ptr, i32, i32 }
%struct.GCtrace = type { %struct.GCRef, i8, i8, i16, i32, i32, %struct.GCRef, ptr, i32, i32, ptr, ptr, %struct.GCRef, %struct.MRef, i32, i32, ptr, i32, i16, i16, i16, i16, i16, i16, i16, i8, i8, i8, i8 }
%struct.MRef = type { i64 }
%struct.IRType1 = type { i8 }
%struct.FoldState = type { %union.IRIns, [2 x %union.IRIns], [2 x %union.IRIns] }
%union.IRIns = type { %struct.GCRef }
%struct.HotPenalty = type { %struct.MRef, i16, i16 }
%struct.BPropEntry = type { i16, i16, i32 }
%struct.ScEvEntry = type { %struct.MRef, i16, i16, i16, i16, %struct.IRType1, i8 }
%union.TValue = type { i64 }
%struct.RecordFFData = type { ptr, i64, i32 }

@.str = private unnamed_addr constant [23 x i8] c"copy of dead GC object\00", align 1

; Function Attrs: alwaysinline nounwind uwtable
define internal void @checklivetv(ptr noundef %0, ptr noundef %1, ptr noundef %2) #1 {
  %4 = alloca ptr, align 8
  %5 = alloca ptr, align 8
  %6 = alloca ptr, align 8
  store ptr %0, ptr %4, align 8, !tbaa !87
  store ptr %1, ptr %5, align 8, !tbaa !11
  store ptr %2, ptr %6, align 8, !tbaa !92
  ret void
}

; Function Attrs: alwaysinline nounwind uwtable
define internal void @copyTV(ptr noundef %0, ptr noundef %1, ptr noundef %2) #1 {
  %4 = alloca ptr, align 8
  %5 = alloca ptr, align 8
  %6 = alloca ptr, align 8
  store ptr %0, ptr %4, align 8, !tbaa !87
  store ptr %1, ptr %5, align 8, !tbaa !11
  store ptr %2, ptr %6, align 8, !tbaa !11
  %7 = load ptr, ptr %5, align 8, !tbaa !11
  %8 = load ptr, ptr %6, align 8, !tbaa !11
  call void @llvm.memcpy.p0.p0.i64(ptr align 8 %7, ptr align 8 %8, i64 8, i1 false), !tbaa.struct !91
  %9 = load ptr, ptr %4, align 8, !tbaa !87
  %10 = load ptr, ptr %5, align 8, !tbaa !11
  call void @checklivetv(ptr noundef %9, ptr noundef %10, ptr noundef @.str)
  ret void
}

; Function Attrs: nounwind uwtable
define internal void @recff_xpcall(ptr noundef %0, ptr noundef %1) #0 {
  %3 = alloca ptr, align 8
  %4 = alloca ptr, align 8
  %5 = alloca %union.TValue, align 8
  %6 = alloca %union.TValue, align 8
  %7 = alloca i32, align 4
  %8 = alloca i32, align 4
  store ptr %0, ptr %3, align 8, !tbaa !4
  store ptr %1, ptr %4, align 8, !tbaa !46
  %9 = load ptr, ptr %3, align 8, !tbaa !4
  %10 = getelementptr inbounds nuw %struct.jit_State, ptr %9, i32 0, i32 8
  %11 = load i32, ptr %10, align 4, !tbaa !42
  %12 = icmp uge i32 %11, 2
  br i1 %12, label %13, label %106

13:                                               ; preds = %2
  call void @llvm.lifetime.start.p0(i64 8, ptr %5) #9
  call void @llvm.lifetime.start.p0(i64 8, ptr %6) #9
  call void @llvm.lifetime.start.p0(i64 4, ptr %7) #9
  call void @llvm.lifetime.start.p0(i64 4, ptr %8) #9
  %14 = load ptr, ptr %3, align 8, !tbaa !4
  %15 = getelementptr inbounds nuw %struct.jit_State, ptr %14, i32 0, i32 6
  %16 = load ptr, ptr %15, align 8, !tbaa !41
  %17 = getelementptr inbounds i32, ptr %16, i64 0
  %18 = load i32, ptr %17, align 4, !tbaa !9
  store i32 %18, ptr %7, align 4, !tbaa !9
  %19 = load ptr, ptr %3, align 8, !tbaa !4
  %20 = getelementptr inbounds nuw %struct.jit_State, ptr %19, i32 0, i32 6
  %21 = load ptr, ptr %20, align 8, !tbaa !41
  %22 = getelementptr inbounds i32, ptr %21, i64 1
  %23 = load i32, ptr %22, align 4, !tbaa !9
  %24 = load ptr, ptr %3, align 8, !tbaa !4
  %25 = getelementptr inbounds nuw %struct.jit_State, ptr %24, i32 0, i32 6
  %26 = load ptr, ptr %25, align 8, !tbaa !41
  %27 = getelementptr inbounds i32, ptr %26, i64 0
  store i32 %23, ptr %27, align 4, !tbaa !9
  %28 = load i32, ptr %7, align 4, !tbaa !9
  %29 = load ptr, ptr %3, align 8, !tbaa !4
  %30 = getelementptr inbounds nuw %struct.jit_State, ptr %29, i32 0, i32 6
  %31 = load ptr, ptr %30, align 8, !tbaa !41
  %32 = getelementptr inbounds i32, ptr %31, i64 1
  store i32 %28, ptr %32, align 4, !tbaa !9
  %33 = load ptr, ptr %3, align 8, !tbaa !4
  %34 = getelementptr inbounds nuw %struct.jit_State, ptr %33, i32 0, i32 2
  %35 = load ptr, ptr %34, align 8, !tbaa !37
  %36 = load ptr, ptr %4, align 8, !tbaa !46
  %37 = getelementptr inbounds nuw %struct.RecordFFData, ptr %36, i32 0, i32 0
  %38 = load ptr, ptr %37, align 8, !tbaa !40
  %39 = getelementptr inbounds %union.TValue, ptr %38, i64 0
  call void @copyTV(ptr noundef %35, ptr noundef %5, ptr noundef %39)
  %40 = load ptr, ptr %3, align 8, !tbaa !4
  %41 = getelementptr inbounds nuw %struct.jit_State, ptr %40, i32 0, i32 2
  %42 = load ptr, ptr %41, align 8, !tbaa !37
  %43 = load ptr, ptr %4, align 8, !tbaa !46
  %44 = getelementptr inbounds nuw %struct.RecordFFData, ptr %43, i32 0, i32 0
  %45 = load ptr, ptr %44, align 8, !tbaa !40
  %46 = getelementptr inbounds %union.TValue, ptr %45, i64 1
  call void @copyTV(ptr noundef %42, ptr noundef %6, ptr noundef %46)
  %47 = load ptr, ptr %3, align 8, !tbaa !4
  %48 = getelementptr inbounds nuw %struct.jit_State, ptr %47, i32 0, i32 2
  %49 = load ptr, ptr %48, align 8, !tbaa !37
  %50 = load ptr, ptr %4, align 8, !tbaa !46
  %51 = getelementptr inbounds nuw %struct.RecordFFData, ptr %50, i32 0, i32 0
  %52 = load ptr, ptr %51, align 8, !tbaa !40
  %53 = getelementptr inbounds %union.TValue, ptr %52, i64 0
  call void @copyTV(ptr noundef %49, ptr noundef %53, ptr noundef %6)
  %54 = load ptr, ptr %3, align 8, !tbaa !4
  %55 = getelementptr inbounds nuw %struct.jit_State, ptr %54, i32 0, i32 2
  %56 = load ptr, ptr %55, align 8, !tbaa !37
  %57 = load ptr, ptr %4, align 8, !tbaa !46
  %58 = getelementptr inbounds nuw %struct.RecordFFData, ptr %57, i32 0, i32 0
  %59 = load ptr, ptr %58, align 8, !tbaa !40
  %60 = getelementptr inbounds %union.TValue, ptr %59, i64 1
  call void @copyTV(ptr noundef %56, ptr noundef %60, ptr noundef %5)
  %61 = load ptr, ptr %3, align 8, !tbaa !4
  %62 = getelementptr inbounds nuw %struct.jit_State, ptr %61, i32 0, i32 6
  %63 = load ptr, ptr %62, align 8, !tbaa !41
  %64 = getelementptr inbounds i32, ptr %63, i64 2
  %65 = load ptr, ptr %3, align 8, !tbaa !4
  %66 = getelementptr inbounds nuw %struct.jit_State, ptr %65, i32 0, i32 6
  %67 = load ptr, ptr %66, align 8, !tbaa !41
  %68 = getelementptr inbounds i32, ptr %67, i64 1
  %69 = load ptr, ptr %3, align 8, !tbaa !4
  %70 = getelementptr inbounds nuw %struct.jit_State, ptr %69, i32 0, i32 8
  %71 = load i32, ptr %70, align 4, !tbaa !42
  %72 = sub i32 %71, 1
  %73 = zext i32 %72 to i64
  %74 = mul i64 4, %73
  call void @llvm.memmove.p0.p0.i64(ptr align 4 %64, ptr align 4 %68, i64 %74, i1 false)
  %75 = load ptr, ptr %3, align 8, !tbaa !4
  %76 = getelementptr inbounds nuw %struct.jit_State, ptr %75, i32 0, i32 2
  %77 = load ptr, ptr %76, align 8, !tbaa !37
  %78 = load ptr, ptr %3, align 8, !tbaa !4
  %79 = call i32 @lj_vm_cpcall(ptr noundef %77, ptr noundef null, ptr noundef %78, ptr noundef @recff_xpcall_cp)
  store i32 %79, ptr %8, align 4, !tbaa !9
  %80 = load ptr, ptr %3, align 8, !tbaa !4
  %81 = getelementptr inbounds nuw %struct.jit_State, ptr %80, i32 0, i32 2
  %82 = load ptr, ptr %81, align 8, !tbaa !37
  %83 = load ptr, ptr %4, align 8, !tbaa !46
  %84 = getelementptr inbounds nuw %struct.RecordFFData, ptr %83, i32 0, i32 0
  %85 = load ptr, ptr %84, align 8, !tbaa !40
  %86 = getelementptr inbounds %union.TValue, ptr %85, i64 0
  call void @copyTV(ptr noundef %82, ptr noundef %86, ptr noundef %5)
  %87 = load ptr, ptr %3, align 8, !tbaa !4
  %88 = getelementptr inbounds nuw %struct.jit_State, ptr %87, i32 0, i32 2
  %89 = load ptr, ptr %88, align 8, !tbaa !37
  %90 = load ptr, ptr %4, align 8, !tbaa !46
  %91 = getelementptr inbounds nuw %struct.RecordFFData, ptr %90, i32 0, i32 0
  %92 = load ptr, ptr %91, align 8, !tbaa !40
  %93 = getelementptr inbounds %union.TValue, ptr %92, i64 1
  call void @copyTV(ptr noundef %89, ptr noundef %93, ptr noundef %6)
  %94 = load i32, ptr %8, align 4, !tbaa !9
  %95 = icmp ne i32 %94, 0
  br i1 %95, label %96, label %101

96:                                               ; preds = %13
  %97 = load ptr, ptr %3, align 8, !tbaa !4
  %98 = getelementptr inbounds nuw %struct.jit_State, ptr %97, i32 0, i32 2
  %99 = load ptr, ptr %98, align 8, !tbaa !37
  %100 = load i32, ptr %8, align 4, !tbaa !9
  call void @lj_err_throw(ptr noundef %99, i32 noundef %100) #10
  unreachable

101:                                              ; preds = %13
  %102 = load ptr, ptr %4, align 8, !tbaa !46
  %103 = getelementptr inbounds nuw %struct.RecordFFData, ptr %102, i32 0, i32 1
  store i64 -1, ptr %103, align 8, !tbaa !36
  %104 = load ptr, ptr %3, align 8, !tbaa !4
  %105 = getelementptr inbounds nuw %struct.jit_State, ptr %104, i32 0, i32 11
  store i8 1, ptr %105, align 1, !tbaa !58
  call void @llvm.lifetime.end.p0(i64 4, ptr %8) #9
  call void @llvm.lifetime.end.p0(i64 4, ptr %7) #9
  call void @llvm.lifetime.end.p0(i64 8, ptr %6) #9
  call void @llvm.lifetime.end.p0(i64 8, ptr %5) #9
  br label %106

106:                                              ; preds = %101, %2
  ret void
}