; Function Attrs: nounwind uwtable
define internal void @recff_xpcall(ptr noundef %0, ptr noundef captures(none) %1) #0 {
  %3 = getelementptr inbounds nuw i8, ptr %0, i64 172
  %4 = load i32, ptr %3, align 4, !tbaa !38
  %5 = icmp ugt i32 %4, 1
  br i1 %5, label %6, label %36

6:                                                ; preds = %2
  %7 = getelementptr inbounds nuw i8, ptr %0, i64 160
  %8 = load ptr, ptr %7, align 8, !tbaa !37
  %9 = load i32, ptr %8, align 4, !tbaa !39
  %10 = getelementptr inbounds nuw i8, ptr %8, i64 4
  %11 = load i32, ptr %10, align 4, !tbaa !39
  store i32 %11, ptr %8, align 4, !tbaa !39
  store i32 %9, ptr %10, align 4, !tbaa !39
  %12 = getelementptr inbounds nuw i8, ptr %0, i64 128
  %13 = load ptr, ptr %1, align 8, !tbaa !36
  %14 = load i64, ptr %13, align 8, !tbaa !4
  %15 = getelementptr inbounds nuw i8, ptr %13, i64 8
  %16 = load i64, ptr %15, align 8, !tbaa !4
  store i64 %16, ptr %13, align 8, !tbaa !4
  %17 = load ptr, ptr %1, align 8, !tbaa !36
  %18 = getelementptr inbounds nuw i8, ptr %17, i64 8
  store i64 %14, ptr %18, align 8, !tbaa !4
  %19 = load ptr, ptr %7, align 8, !tbaa !37
  %20 = getelementptr inbounds nuw i8, ptr %19, i64 8
  %21 = getelementptr inbounds nuw i8, ptr %19, i64 4
  %22 = load i32, ptr %3, align 4, !tbaa !38
  %23 = add i32 %22, -1
  %24 = zext i32 %23 to i64
  %25 = shl nuw nsw i64 %24, 2
  tail call void @llvm.memmove.p0.p0.i64(ptr nonnull align 4 %20, ptr nonnull align 4 %21, i64 %25, i1 false)
  %26 = load ptr, ptr %12, align 8, !tbaa !33
  %27 = tail call i32 @lj_vm_cpcall(ptr noundef %26, ptr noundef null, ptr noundef nonnull %0, ptr noundef nonnull @recff_xpcall_cp) #9
  %28 = load ptr, ptr %1, align 8, !tbaa !36
  store i64 %14, ptr %28, align 8, !tbaa !4
  %29 = load ptr, ptr %1, align 8, !tbaa !36
  %30 = getelementptr inbounds nuw i8, ptr %29, i64 8
  store i64 %16, ptr %30, align 8, !tbaa !4
  %.not = icmp eq i32 %27, 0
  br i1 %.not, label %33, label %31

31:                                               ; preds = %6
  %32 = load ptr, ptr %12, align 8, !tbaa !33
  tail call void @lj_err_throw(ptr noundef %32, i32 noundef %27) #10
  unreachable

33:                                               ; preds = %6
  %34 = getelementptr inbounds nuw i8, ptr %1, i64 8
  store i64 -1, ptr %34, align 8, !tbaa !32
  %35 = getelementptr inbounds nuw i8, ptr %0, i64 181
  store i8 1, ptr %35, align 1, !tbaa !54
  br label %36

36:                                               ; preds = %33, %2
  ret void
}